target datalayout = "e-m:e-p270:32:32-p271:32:32-p272:64:64-i64:64-i128:128-f80:128-n8:16:32:64-S128"
target triple = "x86_64-pc-linux-gnu"

%struct.mbedtls_md_context_t = type { ptr, ptr, ptr }

@.str = private unnamed_addr constant [121 x i8] c"generated/home/dtcxzyw/WorkSpace/Projects/compilers/llvm-opt-benchmark/bench/lief/bench_build/mbed_src/library/ssl_tls.c\00", align 1
@.str.187 = private unnamed_addr constant [15 x i8] c"=> calc verify\00", align 1
@.str.188 = private unnamed_addr constant [25 x i8] c"calculated verify result\00", align 1
@.str.189 = private unnamed_addr constant [15 x i8] c"<= calc verify\00", align 1

; Function Attrs: nounwind uwtable
define internal i32 @ssl_calc_verify_tls_legacy(ptr noundef %0, ptr noundef %1, ptr noundef %2, ptr noundef %3) #0 {
  %5 = alloca ptr, align 8
  %6 = alloca ptr, align 8
  %7 = alloca ptr, align 8
  %8 = alloca ptr, align 8
  %9 = alloca i32, align 4
  %10 = alloca %struct.mbedtls_md_context_t, align 8
  store ptr %0, ptr %5, align 8, !tbaa !27
  store ptr %1, ptr %6, align 8, !tbaa !331
  store ptr %2, ptr %7, align 8, !tbaa !29
  store ptr %3, ptr %8, align 8, !tbaa !39
  call void @llvm.lifetime.start.p0(i64 4, ptr %9) #11
  store i32 -110, ptr %9, align 4, !tbaa !10
  call void @llvm.lifetime.start.p0(i64 24, ptr %10) #11
  call void @mbedtls_md_init(ptr noundef %10)
  %11 = load ptr, ptr %5, align 8, !tbaa !27
  call void (ptr, i32, ptr, i32, ptr, ...) @mbedtls_debug_print_msg(ptr noundef %11, i32 noundef 2, ptr noundef @.str, i32 noundef 7295, ptr noundef @.str.187)
  %12 = load ptr, ptr %6, align 8, !tbaa !331
  %13 = call ptr @mbedtls_md_info_from_ctx(ptr noundef %12)
  %14 = call i32 @mbedtls_md_setup(ptr noundef %10, ptr noundef %13, i32 noundef 0)
  store i32 %14, ptr %9, align 4, !tbaa !10
  %15 = load i32, ptr %9, align 4, !tbaa !10
  %16 = icmp ne i32 %15, 0
  br i1 %16, label %17, label %18

17:                                               ; preds = %4
  br label %41

18:                                               ; preds = %4
  %19 = load ptr, ptr %6, align 8, !tbaa !331
  %20 = call i32 @mbedtls_md_clone(ptr noundef %10, ptr noundef %19)
  store i32 %20, ptr %9, align 4, !tbaa !10
  %21 = load i32, ptr %9, align 4, !tbaa !10
  %22 = icmp ne i32 %21, 0
  br i1 %22, label %23, label %24

23:                                               ; preds = %18
  br label %41

24:                                               ; preds = %18
  %25 = load ptr, ptr %7, align 8, !tbaa !29
  %26 = call i32 @mbedtls_md_finish(ptr noundef %10, ptr noundef %25)
  store i32 %26, ptr %9, align 4, !tbaa !10
  %27 = load i32, ptr %9, align 4, !tbaa !10
  %28 = icmp ne i32 %27, 0
  br i1 %28, label %29, label %30

29:                                               ; preds = %24
  br label %41

30:                                               ; preds = %24
  %31 = load ptr, ptr %6, align 8, !tbaa !331
  %32 = call ptr @mbedtls_md_info_from_ctx(ptr noundef %31)
  %33 = call zeroext i8 @mbedtls_md_get_size(ptr noundef %32)
  %34 = zext i8 %33 to i64
  %35 = load ptr, ptr %8, align 8, !tbaa !39
  store i64 %34, ptr %35, align 8, !tbaa !8
  %36 = load ptr, ptr %5, align 8, !tbaa !27
  %37 = load ptr, ptr %7, align 8, !tbaa !29
  %38 = load ptr, ptr %8, align 8, !tbaa !39
  %39 = load i64, ptr %38, align 8, !tbaa !8
  call void @mbedtls_debug_print_buf(ptr noundef %36, i32 noundef 3, ptr noundef @.str, i32 noundef 7313, ptr noundef @.str.188, ptr noundef %37, i64 noundef %39)
  %40 = load ptr, ptr %5, align 8, !tbaa !27
  call void (ptr, i32, ptr, i32, ptr, ...) @mbedtls_debug_print_msg(ptr noundef %40, i32 noundef 2, ptr noundef @.str, i32 noundef 7314, ptr noundef @.str.189)
  br label %41

41:                                               ; preds = %30, %29, %23, %17
  call void @mbedtls_md_free(ptr noundef %10)
  %42 = load i32, ptr %9, align 4, !tbaa !10
  call void @llvm.lifetime.end.p0(i64 24, ptr %10) #11
  call void @llvm.lifetime.end.p0(i64 4, ptr %9) #11
  ret i32 %42
}