; Function Attrs: nounwind uwtable
define internal fastcc i32 @ssl_calc_verify_tls_legacy(ptr noundef %0, ptr noundef %1, ptr noundef %2, ptr noundef writeonly captures(none) %3) unnamed_addr #1 {
  %5 = alloca %struct.mbedtls_md_context_t, align 8
  call void @llvm.lifetime.start.p0(i64 24, ptr nonnull %5) #26
  call void @mbedtls_md_init(ptr noundef nonnull %5) #26
  call void (ptr, i32, ptr, i32, ptr, ...) @mbedtls_debug_print_msg(ptr noundef %0, i32 noundef 2, ptr noundef nonnull @.str, i32 noundef 7295, ptr noundef nonnull @.str.187) #26
  %6 = call ptr @mbedtls_md_info_from_ctx(ptr noundef %1) #26
  %7 = call i32 @mbedtls_md_setup(ptr noundef nonnull %5, ptr noundef %6, i32 noundef 0) #26
  %.not = icmp eq i32 %7, 0
  br i1 %.not, label %8, label %16

8:                                                ; preds = %4
  %9 = call i32 @mbedtls_md_clone(ptr noundef nonnull %5, ptr noundef %1) #26
  %.not16 = icmp eq i32 %9, 0
  br i1 %.not16, label %10, label %16

10:                                               ; preds = %8
  %11 = call i32 @mbedtls_md_finish(ptr noundef nonnull %5, ptr noundef %2) #26
  %.not17 = icmp eq i32 %11, 0
  br i1 %.not17, label %12, label %16

12:                                               ; preds = %10
  %13 = call ptr @mbedtls_md_info_from_ctx(ptr noundef %1) #26
  %14 = call zeroext i8 @mbedtls_md_get_size(ptr noundef %13) #26
  %15 = zext i8 %14 to i64
  store i64 %15, ptr %3, align 8, !tbaa !33
  call void @mbedtls_debug_print_buf(ptr noundef %0, i32 noundef 3, ptr noundef nonnull @.str, i32 noundef 7313, ptr noundef nonnull @.str.188, ptr noundef %2, i64 noundef %15) #26
  call void (ptr, i32, ptr, i32, ptr, ...) @mbedtls_debug_print_msg(ptr noundef %0, i32 noundef 2, ptr noundef nonnull @.str, i32 noundef 7314, ptr noundef nonnull @.str.189) #26
  br label %16

16:                                               ; preds = %10, %8, %4, %12
  %.0 = phi i32 [ %7, %4 ], [ %9, %8 ], [ %11, %10 ], [ 0, %12 ]
  call void @mbedtls_md_free(ptr noundef nonnull %5) #26
  call void @llvm.lifetime.end.p0(i64 24, ptr nonnull %5) #26
  ret i32 %.0
}